target datalayout = "e-m:e-p270:32:32-p271:32:32-p272:64:64-i64:64-i128:128-f80:128-n8:16:32:64-S128"
target triple = "x86_64-pc-linux-gnu"

@notmoved = global i32 0, align 4
@.str.25 = private unnamed_addr constant [22 x i8] c"Can't copy file '%s'\0A\00", align 1
@.str.26 = private unnamed_addr constant [20 x i8] c"%s: copied to '%s'\0A\00", align 1

; Function Attrs: nounwind uwtable
define internal void @action_copy(ptr noundef %0) #0 {
  %2 = alloca ptr, align 8
  %3 = alloca ptr, align 8
  %4 = alloca i32, align 4
  store ptr %0, ptr %2, align 8
  %5 = load ptr, ptr %2, align 8
  %6 = call i32 @getdest(ptr noundef %5, ptr noundef %3)
  store i32 %6, ptr %4, align 4
  %7 = load i32, ptr %4, align 4
  %8 = icmp slt i32 %7, 0
  br i1 %8, label %14, label %9

9:                                                ; preds = %1
  %10 = load ptr, ptr %2, align 8
  %11 = load ptr, ptr %3, align 8
  %12 = call i32 @filecopy(ptr noundef %10, ptr noundef %11)
  %13 = icmp ne i32 %12, 0
  br i1 %13, label %14, label %25

14:                                               ; preds = %9, %1
  %15 = load ptr, ptr %2, align 8
  %16 = call i32 (i32, ptr, ...) @logg(i32 noundef 5, ptr noundef @.str.25, ptr noundef %15)
  %17 = load i32, ptr @notmoved, align 4
  %18 = add i32 %17, 1
  store i32 %18, ptr @notmoved, align 4
  %19 = load ptr, ptr %3, align 8
  %20 = icmp ne ptr %19, null
  br i1 %20, label %21, label %24

21:                                               ; preds = %14
  %22 = load ptr, ptr %3, align 8
  %23 = call i32 @traverse_unlink(ptr noundef %22)
  br label %24

24:                                               ; preds = %21, %14
  br label %29

25:                                               ; preds = %9
  %26 = load ptr, ptr %2, align 8
  %27 = load ptr, ptr %3, align 8
  %28 = call i32 (i32, ptr, ...) @logg(i32 noundef 0, ptr noundef @.str.26, ptr noundef %26, ptr noundef %27)
  br label %29

29:                                               ; preds = %25, %24
  %30 = load i32, ptr %4, align 4
  %31 = icmp sge i32 %30, 0
  br i1 %31, label %32, label %35

32:                                               ; preds = %29
  %33 = load i32, ptr %4, align 4
  %34 = call i32 @close(i32 noundef %33)
  br label %35

35:                                               ; preds = %32, %29
  %36 = load ptr, ptr %3, align 8
  %37 = icmp ne ptr %36, null
  br i1 %37, label %38, label %40

38:                                               ; preds = %35
  %39 = load ptr, ptr %3, align 8
  call void @free(ptr noundef %39) #7
  br label %40

40:                                               ; preds = %38, %35
  ret void
}