; Function Attrs: nounwind uwtable
define internal void @action_copy(ptr noundef %0) #0 {
  %2 = alloca ptr, align 8
  %3 = call fastcc i32 @getdest(ptr noundef %0, ptr noundef nonnull %2), !range !4
  %4 = icmp slt i32 %3, 0
  %.pr = load ptr, ptr %2, align 8
  br i1 %4, label %thread-pre-split, label %5

5:                                                ; preds = %1
  %6 = tail call i32 @filecopy(ptr noundef %0, ptr noundef %.pr) #11
  %.not = icmp eq i32 %6, 0
  br i1 %.not, label %.thread, label %thread-pre-split

thread-pre-split:                                 ; preds = %1, %5
  %7 = tail call i32 (i32, ptr, ...) @logg(i32 noundef 5, ptr noundef nonnull @.str.25, ptr noundef %0) #11
  %8 = load i32, ptr @notmoved, align 4
  %9 = add i32 %8, 1
  store i32 %9, ptr @notmoved, align 4
  %.not8 = icmp eq ptr %.pr, null
  br i1 %.not8, label %13, label %10

10:                                               ; preds = %thread-pre-split
  %11 = tail call fastcc i32 @traverse_unlink(ptr noundef nonnull %.pr), !range !5
  br label %13

.thread:                                          ; preds = %5
  %12 = tail call i32 (i32, ptr, ...) @logg(i32 noundef 0, ptr noundef nonnull @.str.26, ptr noundef %0, ptr noundef %.pr) #11
  br label %15

13:                                               ; preds = %thread-pre-split, %10
  %14 = icmp sgt i32 %3, -1
  br i1 %14, label %15, label %17

15:                                               ; preds = %.thread, %13
  %16 = tail call i32 @close(i32 noundef %3) #11
  br label %17

17:                                               ; preds = %15, %13
  %.not9 = icmp eq ptr %.pr, null
  br i1 %.not9, label %19, label %18

18:                                               ; preds = %17
  tail call void @free(ptr noundef nonnull %.pr) #11
  br label %19

19:                                               ; preds = %18, %17
  ret void
}